; Function Attrs: null_pointer_is_valid sspstrong uwtable
define internal noundef i32 @dissect_nfs3_setattr_reply(ptr noundef %0, ptr noundef readonly captures(none) %1, ptr noundef %2, ptr readnone captures(none) %3) #0 {
  %5 = tail call i32 @tvb_get_ntohl(ptr noundef %0, i32 noundef 0)
  %.not.i = icmp eq ptr %2, null
  br i1 %.not.i, label %dissect_nfs3_status.exit, label %6

6:                                                ; preds = %4
  %7 = load i32, ptr @hf_nfs3_status, align 4
  %8 = tail call ptr @proto_tree_add_uint(ptr noundef nonnull %2, i32 noundef %7, ptr noundef %0, i32 noundef 0, i32 noundef 4, i32 noundef %5)
  %9 = load i32, ptr @hf_nfs_status, align 4
  %10 = tail call ptr @proto_tree_add_uint(ptr noundef nonnull %2, i32 noundef %9, ptr noundef %0, i32 noundef 0, i32 noundef 4, i32 noundef %5)
  %.not.i.i = icmp eq ptr %10, null
  br i1 %.not.i.i, label %dissect_nfs3_status.exit, label %11

11:                                               ; preds = %6
  %12 = getelementptr inbounds nuw i8, ptr %10, i64 40
  %13 = load ptr, ptr %12, align 8
  %.not5.i.i = icmp eq ptr %13, null
  br i1 %.not5.i.i, label %dissect_nfs3_status.exit, label %14

14:                                               ; preds = %11
  %15 = getelementptr inbounds nuw i8, ptr %13, i64 28
  %16 = load i32, ptr %15, align 4
  %17 = or i32 %16, 1
  store i32 %17, ptr %15, align 4
  br label %dissect_nfs3_status.exit

dissect_nfs3_status.exit:                         ; preds = %4, %6, %11, %14
  %cond = icmp eq i32 %5, 0
  %18 = tail call fastcc i32 @dissect_wcc_data(ptr noundef %0, i32 noundef 4, ptr noundef %1, ptr noundef %2, ptr noundef nonnull @.str.2299)
  br i1 %cond, label %19, label %20

19:                                               ; preds = %dissect_nfs3_status.exit
  tail call void (ptr, ptr, ...) @proto_item_append_text(ptr noundef %2, ptr noundef nonnull @.str.2300)
  br label %24

20:                                               ; preds = %dissect_nfs3_status.exit
  %21 = tail call ptr @val_to_str_ext(i32 noundef %5, ptr noundef nonnull @names_nfs3_status_ext, ptr noundef nonnull @.str.2241)
  %22 = getelementptr inbounds nuw i8, ptr %1, i64 8
  %23 = load ptr, ptr %22, align 8
  tail call void (ptr, i32, ptr, ...) @col_append_fstr(ptr noundef %23, i32 noundef 25, ptr noundef nonnull @.str.2242, ptr noundef %21)
  tail call void (ptr, ptr, ...) @proto_item_append_text(ptr noundef %2, ptr noundef nonnull @.str.2301, ptr noundef %21)
  br label %24

24:                                               ; preds = %20, %19
  ret i32 %18
}